target datalayout = "e-m:e-p270:32:32-p271:32:32-p272:64:64-i64:64-i128:128-f80:128-n8:16:32:64-S128"
target triple = "x86_64-pc-linux-gnu"

; Function Attrs: nounwind uwtable
define internal zeroext i1 @pg_utf8_increment(ptr noundef %0, i32 noundef %1) #1 {
  %3 = alloca i1, align 1
  %4 = alloca ptr, align 8
  %5 = alloca i32, align 4
  %6 = alloca i8, align 1
  %7 = alloca i8, align 1
  %8 = alloca i32, align 4
  store ptr %0, ptr %4, align 8
  store i32 %1, ptr %5, align 4
  call void @llvm.lifetime.start.p0(i64 1, ptr %6) #9
  call void @llvm.lifetime.start.p0(i64 1, ptr %7) #9
  %9 = load i32, ptr %5, align 4
  switch i32 %9, label %10 [
    i32 4, label %11
    i32 3, label %24
    i32 2, label %37
    i32 1, label %59
  ]

10:                                               ; preds = %2
  store i1 false, ptr %3, align 1
  store i32 1, ptr %8, align 4
  br label %84

11:                                               ; preds = %2
  %12 = load ptr, ptr %4, align 8
  %13 = getelementptr inbounds i8, ptr %12, i64 3
  %14 = load i8, ptr %13, align 1
  store i8 %14, ptr %6, align 1
  %15 = load i8, ptr %6, align 1
  %16 = zext i8 %15 to i32
  %17 = icmp slt i32 %16, 191
  br i1 %17, label %18, label %23

18:                                               ; preds = %11
  %19 = load ptr, ptr %4, align 8
  %20 = getelementptr inbounds i8, ptr %19, i64 3
  %21 = load i8, ptr %20, align 1
  %22 = add i8 %21, 1
  store i8 %22, ptr %20, align 1
  br label %83

23:                                               ; preds = %11
  br label %24

24:                                               ; preds = %2, %23
  %25 = load ptr, ptr %4, align 8
  %26 = getelementptr inbounds i8, ptr %25, i64 2
  %27 = load i8, ptr %26, align 1
  store i8 %27, ptr %6, align 1
  %28 = load i8, ptr %6, align 1
  %29 = zext i8 %28 to i32
  %30 = icmp slt i32 %29, 191
  br i1 %30, label %31, label %36

31:                                               ; preds = %24
  %32 = load ptr, ptr %4, align 8
  %33 = getelementptr inbounds i8, ptr %32, i64 2
  %34 = load i8, ptr %33, align 1
  %35 = add i8 %34, 1
  store i8 %35, ptr %33, align 1
  br label %83

36:                                               ; preds = %24
  br label %37

37:                                               ; preds = %2, %36
  %38 = load ptr, ptr %4, align 8
  %39 = getelementptr inbounds i8, ptr %38, i64 1
  %40 = load i8, ptr %39, align 1
  store i8 %40, ptr %6, align 1
  %41 = load ptr, ptr %4, align 8
  %42 = load i8, ptr %41, align 1
  %43 = zext i8 %42 to i32
  switch i32 %43, label %46 [
    i32 237, label %44
    i32 244, label %45
  ]

44:                                               ; preds = %37
  store i8 -97, ptr %7, align 1
  br label %47

45:                                               ; preds = %37
  store i8 -113, ptr %7, align 1
  br label %47

46:                                               ; preds = %37
  store i8 -65, ptr %7, align 1
  br label %47

47:                                               ; preds = %46, %45, %44
  %48 = load i8, ptr %6, align 1
  %49 = zext i8 %48 to i32
  %50 = load i8, ptr %7, align 1
  %51 = zext i8 %50 to i32
  %52 = icmp slt i32 %49, %51
  br i1 %52, label %53, label %58

53:                                               ; preds = %47
  %54 = load ptr, ptr %4, align 8
  %55 = getelementptr inbounds i8, ptr %54, i64 1
  %56 = load i8, ptr %55, align 1
  %57 = add i8 %56, 1
  store i8 %57, ptr %55, align 1
  br label %83

58:                                               ; preds = %47
  br label %59

59:                                               ; preds = %2, %58
  %60 = load ptr, ptr %4, align 8
  %61 = load i8, ptr %60, align 1
  store i8 %61, ptr %6, align 1
  %62 = load i8, ptr %6, align 1
  %63 = zext i8 %62 to i32
  %64 = icmp eq i32 %63, 127
  br i1 %64, label %77, label %65

65:                                               ; preds = %59
  %66 = load i8, ptr %6, align 1
  %67 = zext i8 %66 to i32
  %68 = icmp eq i32 %67, 223
  br i1 %68, label %77, label %69

69:                                               ; preds = %65
  %70 = load i8, ptr %6, align 1
  %71 = zext i8 %70 to i32
  %72 = icmp eq i32 %71, 239
  br i1 %72, label %77, label %73

73:                                               ; preds = %69
  %74 = load i8, ptr %6, align 1
  %75 = zext i8 %74 to i32
  %76 = icmp eq i32 %75, 244
  br i1 %76, label %77, label %78

77:                                               ; preds = %73, %69, %65, %59
  store i1 false, ptr %3, align 1
  store i32 1, ptr %8, align 4
  br label %84

78:                                               ; preds = %73
  %79 = load ptr, ptr %4, align 8
  %80 = getelementptr inbounds i8, ptr %79, i64 0
  %81 = load i8, ptr %80, align 1
  %82 = add i8 %81, 1
  store i8 %82, ptr %80, align 1
  br label %83

83:                                               ; preds = %78, %53, %31, %18
  store i1 true, ptr %3, align 1
  store i32 1, ptr %8, align 4
  br label %84

84:                                               ; preds = %83, %77, %10
  call void @llvm.lifetime.end.p0(i64 1, ptr %7) #9
  call void @llvm.lifetime.end.p0(i64 1, ptr %6) #9
  %85 = load i1, ptr %3, align 1
  ret i1 %85
}